target datalayout = "e-m:e-p270:32:32-p271:32:32-p272:64:64-i64:64-i128:128-f80:128-n8:16:32:64-S128"
target triple = "x86_64-pc-linux-gnu"

%struct._lv_font_t = type { ptr, ptr, ptr, i32, i32, i8, i8, i8, ptr, ptr, ptr }
%struct.lv_font_fmt_txt_dsc_t = type { ptr, ptr, ptr, ptr, i16, i16 }
%struct.lv_font_fmt_txt_kern_pair_t = type { ptr, ptr, i32 }
%struct.lv_font_fmt_txt_kern_classes_t = type { ptr, ptr, ptr, i8, i8 }
%struct.lv_font_fmt_txt_cmap_t = type { i32, i16, i16, ptr, ptr, i16, i32 }

; Function Attrs: nounwind uwtable
define void @lv_binfont_destroy(ptr noundef %0) #0 {
  %2 = alloca ptr, align 8
  %3 = alloca ptr, align 8
  %4 = alloca i32, align 4
  %5 = alloca ptr, align 8
  %6 = alloca ptr, align 8
  %7 = alloca ptr, align 8
  %8 = alloca i32, align 4
  store ptr %0, ptr %2, align 8, !tbaa !10
  %9 = load ptr, ptr %2, align 8, !tbaa !10
  %10 = icmp eq ptr %9, null
  br i1 %10, label %11, label %12

11:                                               ; preds = %1
  br label %105

12:                                               ; preds = %1
  call void @llvm.lifetime.start.p0(i64 8, ptr %3) #3
  %13 = load ptr, ptr %2, align 8, !tbaa !10
  %14 = getelementptr inbounds nuw %struct._lv_font_t, ptr %13, i32 0, i32 8
  %15 = load ptr, ptr %14, align 8, !tbaa !13
  store ptr %15, ptr %3, align 8, !tbaa !12
  %16 = load ptr, ptr %3, align 8, !tbaa !12
  %17 = icmp eq ptr %16, null
  br i1 %17, label %18, label %19

18:                                               ; preds = %12
  store i32 1, ptr %4, align 4
  br label %103

19:                                               ; preds = %12
  %20 = load ptr, ptr %3, align 8, !tbaa !12
  %21 = getelementptr inbounds nuw %struct.lv_font_fmt_txt_dsc_t, ptr %20, i32 0, i32 5
  %22 = load i16, ptr %21, align 2
  %23 = lshr i16 %22, 13
  %24 = and i16 %23, 1
  %25 = zext i16 %24 to i32
  %26 = icmp eq i32 %25, 0
  br i1 %26, label %27, label %42

27:                                               ; preds = %19
  call void @llvm.lifetime.start.p0(i64 8, ptr %5) #3
  %28 = load ptr, ptr %3, align 8, !tbaa !12
  %29 = getelementptr inbounds nuw %struct.lv_font_fmt_txt_dsc_t, ptr %28, i32 0, i32 3
  %30 = load ptr, ptr %29, align 8, !tbaa !44
  store ptr %30, ptr %5, align 8, !tbaa !12
  %31 = load ptr, ptr %5, align 8, !tbaa !12
  %32 = icmp ne ptr null, %31
  br i1 %32, label %33, label %41

33:                                               ; preds = %27
  %34 = load ptr, ptr %5, align 8, !tbaa !12
  %35 = getelementptr inbounds nuw %struct.lv_font_fmt_txt_kern_pair_t, ptr %34, i32 0, i32 0
  %36 = load ptr, ptr %35, align 8, !tbaa !46
  call void @lv_free(ptr noundef %36)
  %37 = load ptr, ptr %5, align 8, !tbaa !12
  %38 = getelementptr inbounds nuw %struct.lv_font_fmt_txt_kern_pair_t, ptr %37, i32 0, i32 1
  %39 = load ptr, ptr %38, align 8, !tbaa !48
  call void @lv_free(ptr noundef %39)
  %40 = load ptr, ptr %5, align 8, !tbaa !12
  call void @lv_free(ptr noundef %40)
  br label %41

41:                                               ; preds = %33, %27
  call void @llvm.lifetime.end.p0(i64 8, ptr %5) #3
  br label %60

42:                                               ; preds = %19
  call void @llvm.lifetime.start.p0(i64 8, ptr %6) #3
  %43 = load ptr, ptr %3, align 8, !tbaa !12
  %44 = getelementptr inbounds nuw %struct.lv_font_fmt_txt_dsc_t, ptr %43, i32 0, i32 3
  %45 = load ptr, ptr %44, align 8, !tbaa !44
  store ptr %45, ptr %6, align 8, !tbaa !12
  %46 = load ptr, ptr %6, align 8, !tbaa !12
  %47 = icmp ne ptr null, %46
  br i1 %47, label %48, label %59

48:                                               ; preds = %42
  %49 = load ptr, ptr %6, align 8, !tbaa !12
  %50 = getelementptr inbounds nuw %struct.lv_font_fmt_txt_kern_classes_t, ptr %49, i32 0, i32 0
  %51 = load ptr, ptr %50, align 8, !tbaa !49
  call void @lv_free(ptr noundef %51)
  %52 = load ptr, ptr %6, align 8, !tbaa !12
  %53 = getelementptr inbounds nuw %struct.lv_font_fmt_txt_kern_classes_t, ptr %52, i32 0, i32 1
  %54 = load ptr, ptr %53, align 8, !tbaa !51
  call void @lv_free(ptr noundef %54)
  %55 = load ptr, ptr %6, align 8, !tbaa !12
  %56 = getelementptr inbounds nuw %struct.lv_font_fmt_txt_kern_classes_t, ptr %55, i32 0, i32 2
  %57 = load ptr, ptr %56, align 8, !tbaa !52
  call void @lv_free(ptr noundef %57)
  %58 = load ptr, ptr %6, align 8, !tbaa !12
  call void @lv_free(ptr noundef %58)
  br label %59

59:                                               ; preds = %48, %42
  call void @llvm.lifetime.end.p0(i64 8, ptr %6) #3
  br label %60

60:                                               ; preds = %59, %41
  call void @llvm.lifetime.start.p0(i64 8, ptr %7) #3
  %61 = load ptr, ptr %3, align 8, !tbaa !12
  %62 = getelementptr inbounds nuw %struct.lv_font_fmt_txt_dsc_t, ptr %61, i32 0, i32 2
  %63 = load ptr, ptr %62, align 8, !tbaa !53
  store ptr %63, ptr %7, align 8, !tbaa !12
  %64 = load ptr, ptr %7, align 8, !tbaa !12
  %65 = icmp ne ptr null, %64
  br i1 %65, label %66, label %94

66:                                               ; preds = %60
  call void @llvm.lifetime.start.p0(i64 4, ptr %8) #3
  store i32 0, ptr %8, align 4, !tbaa !8
  br label %67

67:                                               ; preds = %89, %66
  %68 = load i32, ptr %8, align 4, !tbaa !8
  %69 = load ptr, ptr %3, align 8, !tbaa !12
  %70 = getelementptr inbounds nuw %struct.lv_font_fmt_txt_dsc_t, ptr %69, i32 0, i32 5
  %71 = load i16, ptr %70, align 2
  %72 = and i16 %71, 511
  %73 = zext i16 %72 to i32
  %74 = icmp slt i32 %68, %73
  br i1 %74, label %76, label %75

75:                                               ; preds = %67
  store i32 2, ptr %4, align 4
  call void @llvm.lifetime.end.p0(i64 4, ptr %8) #3
  br label %92

76:                                               ; preds = %67
  %77 = load ptr, ptr %7, align 8, !tbaa !12
  %78 = load i32, ptr %8, align 4, !tbaa !8
  %79 = sext i32 %78 to i64
  %80 = getelementptr inbounds %struct.lv_font_fmt_txt_cmap_t, ptr %77, i64 %79
  %81 = getelementptr inbounds nuw %struct.lv_font_fmt_txt_cmap_t, ptr %80, i32 0, i32 4
  %82 = load ptr, ptr %81, align 8, !tbaa !54
  call void @lv_free(ptr noundef %82)
  %83 = load ptr, ptr %7, align 8, !tbaa !12
  %84 = load i32, ptr %8, align 4, !tbaa !8
  %85 = sext i32 %84 to i64
  %86 = getelementptr inbounds %struct.lv_font_fmt_txt_cmap_t, ptr %83, i64 %85
  %87 = getelementptr inbounds nuw %struct.lv_font_fmt_txt_cmap_t, ptr %86, i32 0, i32 3
  %88 = load ptr, ptr %87, align 8, !tbaa !57
  call void @lv_free(ptr noundef %88)
  br label %89

89:                                               ; preds = %76
  %90 = load i32, ptr %8, align 4, !tbaa !8
  %91 = add nsw i32 %90, 1
  store i32 %91, ptr %8, align 4, !tbaa !8
  br label %67, !llvm.loop !58

92:                                               ; preds = %75
  %93 = load ptr, ptr %7, align 8, !tbaa !12
  call void @lv_free(ptr noundef %93)
  br label %94

94:                                               ; preds = %92, %60
  %95 = load ptr, ptr %3, align 8, !tbaa !12
  %96 = getelementptr inbounds nuw %struct.lv_font_fmt_txt_dsc_t, ptr %95, i32 0, i32 0
  %97 = load ptr, ptr %96, align 8, !tbaa !59
  call void @lv_free(ptr noundef %97)
  %98 = load ptr, ptr %3, align 8, !tbaa !12
  %99 = getelementptr inbounds nuw %struct.lv_font_fmt_txt_dsc_t, ptr %98, i32 0, i32 1
  %100 = load ptr, ptr %99, align 8, !tbaa !60
  call void @lv_free(ptr noundef %100)
  %101 = load ptr, ptr %3, align 8, !tbaa !12
  call void @lv_free(ptr noundef %101)
  %102 = load ptr, ptr %2, align 8, !tbaa !10
  call void @lv_free(ptr noundef %102)
  call void @llvm.lifetime.end.p0(i64 8, ptr %7) #3
  store i32 0, ptr %4, align 4
  br label %103

103:                                              ; preds = %94, %18
  call void @llvm.lifetime.end.p0(i64 8, ptr %3) #3
  %104 = load i32, ptr %4, align 4
  switch i32 %104, label %106 [
    i32 0, label %105
    i32 1, label %105
  ]

105:                                              ; preds = %11, %103, %103
  ret void

106:                                              ; preds = %103
  unreachable
}