; Function Attrs: nounwind uwtable
define void @lv_binfont_destroy(ptr noundef %0) local_unnamed_addr #0 {
  %2 = icmp eq ptr %0, null
  br i1 %2, label %39, label %3

3:                                                ; preds = %1
  %4 = getelementptr inbounds nuw i8, ptr %0, i64 40
  %5 = load ptr, ptr %4, align 8, !tbaa !3
  %6 = icmp eq ptr %5, null
  br i1 %6, label %39, label %7

7:                                                ; preds = %3
  %8 = getelementptr inbounds nuw i8, ptr %5, i64 34
  %9 = load i16, ptr %8, align 2
  %10 = and i16 %9, 8192
  %11 = icmp eq i16 %10, 0
  %12 = getelementptr inbounds nuw i8, ptr %5, i64 24
  %13 = load ptr, ptr %12, align 8, !tbaa !53
  %.not33 = icmp eq ptr %13, null
  br i1 %11, label %14, label %15

14:                                               ; preds = %7
  br i1 %.not33, label %21, label %.sink.split

15:                                               ; preds = %7
  br i1 %.not33, label %21, label %16

16:                                               ; preds = %15
  %17 = load ptr, ptr %13, align 8, !tbaa !55
  tail call void @lv_free(ptr noundef %17) #3
  %18 = getelementptr inbounds nuw i8, ptr %13, i64 8
  br label %.sink.split

.sink.split:                                      ; preds = %14, %16
  %.sink39.in = phi ptr [ %18, %16 ], [ %13, %14 ]
  %.sink = phi i64 [ 16, %16 ], [ 8, %14 ]
  %.sink39 = load ptr, ptr %.sink39.in, align 8, !tbaa !57
  tail call void @lv_free(ptr noundef %.sink39) #3
  %19 = getelementptr inbounds nuw i8, ptr %13, i64 %.sink
  %20 = load ptr, ptr %19, align 8, !tbaa !58
  tail call void @lv_free(ptr noundef %20) #3
  tail call void @lv_free(ptr noundef nonnull %13) #3
  br label %21

21:                                               ; preds = %.sink.split, %15, %14
  %22 = getelementptr inbounds nuw i8, ptr %5, i64 16
  %23 = load ptr, ptr %22, align 8, !tbaa !30
  %.not34 = icmp eq ptr %23, null
  br i1 %.not34, label %35, label %.preheader

.preheader:                                       ; preds = %21
  %24 = load i16, ptr %8, align 2
  %25 = and i16 %24, 511
  %.not36 = icmp eq i16 %25, 0
  br i1 %.not36, label %._crit_edge, label %.lr.ph

._crit_edge:                                      ; preds = %.lr.ph, %.preheader
  tail call void @lv_free(ptr noundef nonnull %23) #3
  br label %35

.lr.ph:                                           ; preds = %.preheader, %.lr.ph
  %indvars.iv = phi i64 [ %indvars.iv.next, %.lr.ph ], [ 0, %.preheader ]
  %26 = getelementptr inbounds nuw %struct.lv_font_fmt_txt_cmap_t, ptr %23, i64 %indvars.iv
  %27 = getelementptr inbounds nuw i8, ptr %26, i64 16
  %28 = load ptr, ptr %27, align 8, !tbaa !44
  tail call void @lv_free(ptr noundef %28) #3
  %29 = getelementptr inbounds nuw i8, ptr %26, i64 8
  %30 = load ptr, ptr %29, align 8, !tbaa !46
  tail call void @lv_free(ptr noundef %30) #3
  %indvars.iv.next = add nuw nsw i64 %indvars.iv, 1
  %31 = load i16, ptr %8, align 2
  %32 = and i16 %31, 511
  %33 = zext nneg i16 %32 to i64
  %34 = icmp samesign ult i64 %indvars.iv.next, %33
  br i1 %34, label %.lr.ph, label %._crit_edge, !llvm.loop !59

35:                                               ; preds = %._crit_edge, %21
  %36 = load ptr, ptr %5, align 8, !tbaa !60
  tail call void @lv_free(ptr noundef %36) #3
  %37 = getelementptr inbounds nuw i8, ptr %5, i64 8
  %38 = load ptr, ptr %37, align 8, !tbaa !61
  tail call void @lv_free(ptr noundef %38) #3
  tail call void @lv_free(ptr noundef nonnull %5) #3
  tail call void @lv_free(ptr noundef nonnull %0) #3
  br label %39

39:                                               ; preds = %35, %3, %1
  ret void
}